; Function Attrs: mustprogress uwtable
define dso_local void @_ZN4Luau11TypePackVarC2EONS_7VariantIJNS_9Unifiable5BoundIPKS0_EENS2_5ErrorIS5_EENS_12FreeTypePackENS_15GenericTypePackENS_8TypePackENS_16VariadicTypePackENS_15BlockedTypePackENS_28TypeFunctionInstanceTypePackEEEEb(ptr noundef nonnull align 8 dereferenceable(88) initializes((0, 4)) %0, ptr noundef nonnull align 8 dereferenceable(72) %1, i1 noundef zeroext %2) unnamed_addr #2 align 2 {
  %4 = zext i1 %2 to i8
  %5 = load i32, ptr %1, align 8, !tbaa !49
  store i32 %5, ptr %0, align 8, !tbaa !49
  %6 = sext i32 %5 to i64
  %7 = getelementptr inbounds [8 x ptr], ptr @_ZN4Luau7VariantIJNS_9Unifiable5BoundIPKNS_11TypePackVarEEENS1_5ErrorIS5_EENS_12FreeTypePackENS_15GenericTypePackENS_8TypePackENS_16VariadicTypePackENS_15BlockedTypePackENS_28TypeFunctionInstanceTypePackEEE9tableMoveE, i64 0, i64 %6
  %8 = load ptr, ptr %7, align 8, !tbaa !51
  %9 = getelementptr inbounds nuw i8, ptr %0, i64 8
  %10 = getelementptr inbounds nuw i8, ptr %1, i64 8
  tail call void %8(ptr noundef nonnull %9, ptr noundef nonnull %10)
  %11 = getelementptr inbounds nuw i8, ptr %0, i64 72
  store i8 %4, ptr %11, align 8, !tbaa !52
  %12 = getelementptr inbounds nuw i8, ptr %0, i64 80
  store ptr null, ptr %12, align 8, !tbaa !55
  ret void
}